target datalayout = "e-m:e-p270:32:32-p271:32:32-p272:64:64-i64:64-i128:128-f80:128-n8:16:32:64-S128"
target triple = "x86_64-pc-linux-gnu"

%struct._zend_executor_globals = type { %struct._zval_struct, %struct._zval_struct, [32 x ptr], ptr, ptr, %struct._zend_array, %struct._zend_array, ptr, i32, i8, %struct._zval_struct, i32, ptr, ptr, ptr, ptr, ptr, ptr, i64, ptr, ptr, i32, ptr, i32, i64, i32, i32, i32, i8, i8, %struct.zend_atomic_bool_s, %struct.zend_atomic_bool_s, ptr, i64, ptr, ptr, %struct._zend_array, %struct._zend_array, i32, i8, %struct._zval_struct, %struct._zval_struct, %struct._zend_stack, %struct._zend_stack, %struct._zend_stack, ptr, i32, i32, i64, ptr, ptr, ptr, %struct._zend_objects_store, %struct._zend_lazy_objects_store, ptr, ptr, ptr, [3 x %struct._zend_op], ptr, i8, i8, i64, i32, i32, ptr, [16 x %struct._HashTableIterator], ptr, %union._zend_function, %struct._zend_op, %struct._zend_array, i64, %struct.zend_get_gc_buffer, ptr, ptr, ptr, i64, i8, i32, ptr, ptr, i64, %struct._zend_call_stack, i64, i64, %struct._zend_strtod_state, [6 x ptr] }
%struct.zend_atomic_bool_s = type { i8 }
%struct._zval_struct = type { %union._zend_value, %union.anon, %union.anon.2 }
%union._zend_value = type { i64 }
%union.anon = type { i32 }
%union.anon.2 = type { i32 }
%struct._zend_stack = type { i32, i32, i32, ptr }
%struct._zend_objects_store = type { ptr, i32, i32, i32 }
%struct._zend_lazy_objects_store = type { %struct._zend_array }
%struct._HashTableIterator = type { ptr, i32, i32 }
%union._zend_function = type { %struct._zend_op_array }
%struct._zend_op_array = type { i8, [3 x i8], i32, ptr, ptr, ptr, i32, i32, ptr, ptr, ptr, ptr, i32, ptr, i32, i32, i32, ptr, ptr, ptr, ptr, ptr, i32, i32, ptr, ptr, ptr, i32, i32, i32, i32, ptr, ptr, [6 x ptr] }
%struct._zend_op = type { ptr, %union._znode_op, %union._znode_op, %union._znode_op, i32, i32, i8, i8, i8, i8 }
%union._znode_op = type { i32 }
%struct._zend_array = type { %struct._zend_refcounted_h, %union.anon.4, i32, %union.anon.6, i32, i32, i32, i32, i64, ptr }
%struct._zend_refcounted_h = type { i32, %union.anon.3 }
%union.anon.3 = type { i32 }
%union.anon.4 = type { i32 }
%union.anon.6 = type { ptr }
%struct.zend_get_gc_buffer = type { ptr, ptr, ptr }
%struct._zend_call_stack = type { ptr, i64 }
%struct._zend_strtod_state = type { [8 x ptr], ptr, ptr }
%struct._zend_phar_globals = type { %struct._zend_array, %struct._zend_array, ptr, %struct._zend_array, i32, ptr, i8, i8, i8, i8, i8, i8, i8, i8, i8, i8, i8, i8, ptr, ptr, ptr, ptr, ptr, ptr, ptr, ptr, ptr, ptr, ptr, ptr, ptr, ptr, ptr, ptr, ptr, ptr, ptr, ptr, ptr, ptr, ptr, i32, i8, ptr, i32, ptr, i32, ptr, i32, ptr, %struct._zend_array }
%struct._zend_execute_data = type { ptr, ptr, ptr, ptr, %struct._zval_struct, ptr, ptr, ptr, ptr }
%struct._zend_string = type { %struct._zend_refcounted_h, i64, i64, [1 x i8] }
%struct.anon.0 = type { i8, i8, %union.anon.1 }
%union.anon.1 = type { i16 }

@executor_globals = external global %struct._zend_executor_globals, align 8
@phar_ce_PharException = internal global ptr null, align 8
@phar_globals = external global %struct._zend_phar_globals, align 8
@.str.21 = private unnamed_addr constant [12 x i8] c"SCRIPT_NAME\00", align 1
@.str.33 = private unnamed_addr constant [2 x i8] c"a\00", align 1
@.str.34 = private unnamed_addr constant [136 x i8] c"No values passed to Phar::mungServer(), expecting an array of any of these strings: PHP_SELF, REQUEST_URI, SCRIPT_FILENAME, SCRIPT_NAME\00", align 1
@.str.35 = private unnamed_addr constant [142 x i8] c"Too many values passed to Phar::mungServer(), expecting an array of any of these strings: PHP_SELF, REQUEST_URI, SCRIPT_FILENAME, SCRIPT_NAME\00", align 1
@.str.36 = private unnamed_addr constant [143 x i8] c"Non-string value passed to Phar::mungServer(), expecting an array of any of these strings: PHP_SELF, REQUEST_URI, SCRIPT_FILENAME, SCRIPT_NAME\00", align 1
@.str.37 = private unnamed_addr constant [9 x i8] c"PHP_SELF\00", align 1
@.str.38 = private unnamed_addr constant [12 x i8] c"REQUEST_URI\00", align 1
@.str.39 = private unnamed_addr constant [16 x i8] c"SCRIPT_FILENAME\00", align 1

; Function Attrs: alwaysinline nounwind uwtable
define internal zeroext i1 @zend_string_equals_cstr(ptr noundef %0, ptr noundef %1, i64 noundef %2) #4 {
  %4 = alloca ptr, align 8
  %5 = alloca ptr, align 8
  %6 = alloca i64, align 8
  store ptr %0, ptr %4, align 8, !tbaa !46
  store ptr %1, ptr %5, align 8, !tbaa !49
  store i64 %2, ptr %6, align 8, !tbaa !52
  %7 = load ptr, ptr %4, align 8, !tbaa !46
  %8 = getelementptr inbounds nuw %struct._zend_string, ptr %7, i32 0, i32 2
  %9 = load i64, ptr %8, align 8, !tbaa !47
  %10 = load i64, ptr %6, align 8, !tbaa !52
  %11 = icmp eq i64 %9, %10
  br i1 %11, label %12, label %21

12:                                               ; preds = %3
  %13 = load ptr, ptr %4, align 8, !tbaa !46
  %14 = getelementptr inbounds nuw %struct._zend_string, ptr %13, i32 0, i32 3
  %15 = getelementptr inbounds [1 x i8], ptr %14, i64 0, i64 0
  %16 = load ptr, ptr %5, align 8, !tbaa !49
  %17 = load i64, ptr %6, align 8, !tbaa !52
  %18 = call i32 @memcmp(ptr noundef %15, ptr noundef %16, i64 noundef %17) #18
  %19 = icmp ne i32 %18, 0
  %20 = xor i1 %19, true
  br label %21

21:                                               ; preds = %12, %3
  %22 = phi i1 [ false, %3 ], [ %20, %12 ]
  ret i1 %22
}

; Function Attrs: alwaysinline nounwind uwtable
define internal zeroext i8 @zval_get_type(ptr noundef %0) #4 {
  %2 = alloca ptr, align 8
  store ptr %0, ptr %2, align 8, !tbaa !9
  %3 = load ptr, ptr %2, align 8, !tbaa !9
  %4 = getelementptr inbounds nuw %struct._zval_struct, ptr %3, i32 0, i32 1
  %5 = getelementptr inbounds nuw %struct.anon.0, ptr %4, i32 0, i32 0
  %6 = load i8, ptr %5, align 8, !tbaa !13
  ret i8 %6
}

; Function Attrs: alwaysinline nounwind uwtable
define internal i32 @zend_hash_num_elements(ptr noundef %0) #4 {
  %2 = alloca ptr, align 8
  store ptr %0, ptr %2, align 8, !tbaa !59
  %3 = load ptr, ptr %2, align 8, !tbaa !59
  %4 = getelementptr inbounds nuw %struct._zend_array, ptr %3, i32 0, i32 5
  %5 = load i32, ptr %4, align 4, !tbaa !95
  ret i32 %5
}

; Function Attrs: nounwind uwtable
define hidden void @zim_Phar_mungServer(ptr noundef %0, ptr noundef %1) #0 {
  %3 = alloca ptr, align 8
  %4 = alloca ptr, align 8
  %5 = alloca ptr, align 8
  %6 = alloca ptr, align 8
  %7 = alloca i32, align 4
  %8 = alloca ptr, align 8
  %9 = alloca i32, align 4
  %10 = alloca i64, align 8
  %11 = alloca ptr, align 8
  store ptr %0, ptr %3, align 8, !tbaa !4
  store ptr %1, ptr %4, align 8, !tbaa !9
  call void @llvm.lifetime.start.p0(i64 8, ptr %5) #17
  call void @llvm.lifetime.start.p0(i64 8, ptr %6) #17
  %12 = load ptr, ptr %3, align 8, !tbaa !4
  %13 = getelementptr inbounds nuw %struct._zend_execute_data, ptr %12, i32 0, i32 4
  %14 = getelementptr inbounds nuw %struct._zval_struct, ptr %13, i32 0, i32 2
  %15 = load i32, ptr %14, align 4, !tbaa !13
  %16 = call i32 (i32, ptr, ...) @zend_parse_parameters(i32 noundef %15, ptr noundef @.str.33, ptr noundef %5)
  %17 = icmp eq i32 %16, -1
  br i1 %17, label %18, label %24

18:                                               ; preds = %2
  br label %19

19:                                               ; preds = %18
  %20 = load ptr, ptr getelementptr inbounds nuw (%struct._zend_executor_globals, ptr @executor_globals, i32 0, i32 54), align 8, !tbaa !14
  %21 = icmp ne ptr %20, null
  call void @llvm.assume(i1 %21)
  store i32 1, ptr %7, align 4
  br label %148

22:                                               ; No predecessors!
  br label %23

23:                                               ; preds = %22
  br label %24

24:                                               ; preds = %23, %2
  %25 = load ptr, ptr %5, align 8, !tbaa !9
  %26 = getelementptr inbounds nuw %struct._zval_struct, ptr %25, i32 0, i32 0
  %27 = load ptr, ptr %26, align 8, !tbaa !13
  %28 = call i32 @zend_hash_num_elements(ptr noundef %27)
  %29 = icmp ne i32 %28, 0
  br i1 %29, label %38, label %30

30:                                               ; preds = %24
  %31 = load ptr, ptr @phar_ce_PharException, align 8, !tbaa !53
  %32 = call ptr (ptr, i64, ptr, ...) @zend_throw_exception_ex(ptr noundef %31, i64 noundef 0, ptr noundef @.str.34)
  br label %33

33:                                               ; preds = %30
  %34 = load ptr, ptr getelementptr inbounds nuw (%struct._zend_executor_globals, ptr @executor_globals, i32 0, i32 54), align 8, !tbaa !14
  %35 = icmp ne ptr %34, null
  call void @llvm.assume(i1 %35)
  store i32 1, ptr %7, align 4
  br label %148

36:                                               ; No predecessors!
  br label %37

37:                                               ; preds = %36
  br label %38

38:                                               ; preds = %37, %24
  %39 = load ptr, ptr %5, align 8, !tbaa !9
  %40 = getelementptr inbounds nuw %struct._zval_struct, ptr %39, i32 0, i32 0
  %41 = load ptr, ptr %40, align 8, !tbaa !13
  %42 = call i32 @zend_hash_num_elements(ptr noundef %41)
  %43 = icmp ugt i32 %42, 4
  br i1 %43, label %44, label %52

44:                                               ; preds = %38
  %45 = load ptr, ptr @phar_ce_PharException, align 8, !tbaa !53
  %46 = call ptr (ptr, i64, ptr, ...) @zend_throw_exception_ex(ptr noundef %45, i64 noundef 0, ptr noundef @.str.35)
  br label %47

47:                                               ; preds = %44
  %48 = load ptr, ptr getelementptr inbounds nuw (%struct._zend_executor_globals, ptr @executor_globals, i32 0, i32 54), align 8, !tbaa !14
  %49 = icmp ne ptr %48, null
  call void @llvm.assume(i1 %49)
  store i32 1, ptr %7, align 4
  br label %148

50:                                               ; No predecessors!
  br label %51

51:                                               ; preds = %50
  br label %52

52:                                               ; preds = %51, %38
  call void @phar_request_initialize()
  br label %53

53:                                               ; preds = %52
  call void @llvm.lifetime.start.p0(i64 8, ptr %8) #17
  %54 = load ptr, ptr %5, align 8, !tbaa !9
  %55 = getelementptr inbounds nuw %struct._zval_struct, ptr %54, i32 0, i32 0
  %56 = load ptr, ptr %55, align 8, !tbaa !13
  store ptr %56, ptr %8, align 8, !tbaa !59
  call void @llvm.lifetime.start.p0(i64 4, ptr %9) #17
  %57 = load ptr, ptr %8, align 8, !tbaa !59
  %58 = getelementptr inbounds nuw %struct._zend_array, ptr %57, i32 0, i32 4
  %59 = load i32, ptr %58, align 8, !tbaa !113
  store i32 %59, ptr %9, align 4, !tbaa !81
  call void @llvm.lifetime.start.p0(i64 8, ptr %10) #17
  %60 = load ptr, ptr %8, align 8, !tbaa !59
  %61 = getelementptr inbounds nuw %struct._zend_array, ptr %60, i32 0, i32 1
  %62 = load i32, ptr %61, align 8, !tbaa !13
  %63 = xor i32 %62, -1
  %64 = and i32 %63, 4
  %65 = zext i32 %64 to i64
  %66 = mul i64 %65, 4
  %67 = add i64 16, %66
  store i64 %67, ptr %10, align 8, !tbaa !52
  call void @llvm.lifetime.start.p0(i64 8, ptr %11) #17
  %68 = load ptr, ptr %8, align 8, !tbaa !59
  %69 = getelementptr inbounds nuw %struct._zend_array, ptr %68, i32 0, i32 3
  %70 = load ptr, ptr %69, align 8, !tbaa !13
  store ptr %70, ptr %11, align 8, !tbaa !9
  br label %71

71:                                               ; preds = %136, %53
  %72 = load i32, ptr %9, align 4, !tbaa !81
  %73 = icmp ugt i32 %72, 0
  br i1 %73, label %74, label %142

74:                                               ; preds = %71
  %75 = load ptr, ptr %11, align 8, !tbaa !9
  %76 = call zeroext i8 @zval_get_type(ptr noundef %75)
  %77 = zext i8 %76 to i32
  %78 = icmp eq i32 %77, 0
  %79 = xor i1 %78, true
  %80 = xor i1 %79, true
  %81 = zext i1 %80 to i32
  %82 = sext i32 %81 to i64
  %83 = call i64 @llvm.expect.i64(i64 %82, i64 0)
  %84 = icmp ne i64 %83, 0
  br i1 %84, label %85, label %86

85:                                               ; preds = %74
  br label %136

86:                                               ; preds = %74
  %87 = load ptr, ptr %11, align 8, !tbaa !9
  store ptr %87, ptr %6, align 8, !tbaa !9
  %88 = load ptr, ptr %6, align 8, !tbaa !9
  %89 = call zeroext i8 @zval_get_type(ptr noundef %88)
  %90 = zext i8 %89 to i32
  %91 = icmp ne i32 %90, 6
  br i1 %91, label %92, label %100

92:                                               ; preds = %86
  %93 = load ptr, ptr @phar_ce_PharException, align 8, !tbaa !53
  %94 = call ptr (ptr, i64, ptr, ...) @zend_throw_exception_ex(ptr noundef %93, i64 noundef 0, ptr noundef @.str.36)
  br label %95

95:                                               ; preds = %92
  %96 = load ptr, ptr getelementptr inbounds nuw (%struct._zend_executor_globals, ptr @executor_globals, i32 0, i32 54), align 8, !tbaa !14
  %97 = icmp ne ptr %96, null
  call void @llvm.assume(i1 %97)
  store i32 1, ptr %7, align 4
  br label %143

98:                                               ; No predecessors!
  br label %99

99:                                               ; preds = %98
  br label %100

100:                                              ; preds = %99, %86
  %101 = load ptr, ptr %6, align 8, !tbaa !9
  %102 = getelementptr inbounds nuw %struct._zval_struct, ptr %101, i32 0, i32 0
  %103 = load ptr, ptr %102, align 8, !tbaa !13
  %104 = call zeroext i1 @zend_string_equals_cstr(ptr noundef %103, ptr noundef @.str.37, i64 noundef 8)
  br i1 %104, label %105, label %108

105:                                              ; preds = %100
  %106 = load i32, ptr getelementptr inbounds nuw (%struct._zend_phar_globals, ptr @phar_globals, i32 0, i32 4), align 8, !tbaa !114
  %107 = or i32 %106, 1
  store i32 %107, ptr getelementptr inbounds nuw (%struct._zend_phar_globals, ptr @phar_globals, i32 0, i32 4), align 8, !tbaa !114
  br label %135

108:                                              ; preds = %100
  %109 = load ptr, ptr %6, align 8, !tbaa !9
  %110 = getelementptr inbounds nuw %struct._zval_struct, ptr %109, i32 0, i32 0
  %111 = load ptr, ptr %110, align 8, !tbaa !13
  %112 = call zeroext i1 @zend_string_equals_cstr(ptr noundef %111, ptr noundef @.str.38, i64 noundef 11)
  br i1 %112, label %113, label %116

113:                                              ; preds = %108
  %114 = load i32, ptr getelementptr inbounds nuw (%struct._zend_phar_globals, ptr @phar_globals, i32 0, i32 4), align 8, !tbaa !114
  %115 = or i32 %114, 2
  store i32 %115, ptr getelementptr inbounds nuw (%struct._zend_phar_globals, ptr @phar_globals, i32 0, i32 4), align 8, !tbaa !114
  br label %134

116:                                              ; preds = %108
  %117 = load ptr, ptr %6, align 8, !tbaa !9
  %118 = getelementptr inbounds nuw %struct._zval_struct, ptr %117, i32 0, i32 0
  %119 = load ptr, ptr %118, align 8, !tbaa !13
  %120 = call zeroext i1 @zend_string_equals_cstr(ptr noundef %119, ptr noundef @.str.21, i64 noundef 11)
  br i1 %120, label %121, label %124

121:                                              ; preds = %116
  %122 = load i32, ptr getelementptr inbounds nuw (%struct._zend_phar_globals, ptr @phar_globals, i32 0, i32 4), align 8, !tbaa !114
  %123 = or i32 %122, 4
  store i32 %123, ptr getelementptr inbounds nuw (%struct._zend_phar_globals, ptr @phar_globals, i32 0, i32 4), align 8, !tbaa !114
  br label %133

124:                                              ; preds = %116
  %125 = load ptr, ptr %6, align 8, !tbaa !9
  %126 = getelementptr inbounds nuw %struct._zval_struct, ptr %125, i32 0, i32 0
  %127 = load ptr, ptr %126, align 8, !tbaa !13
  %128 = call zeroext i1 @zend_string_equals_cstr(ptr noundef %127, ptr noundef @.str.39, i64 noundef 15)
  br i1 %128, label %129, label %132

129:                                              ; preds = %124
  %130 = load i32, ptr getelementptr inbounds nuw (%struct._zend_phar_globals, ptr @phar_globals, i32 0, i32 4), align 8, !tbaa !114
  %131 = or i32 %130, 8
  store i32 %131, ptr getelementptr inbounds nuw (%struct._zend_phar_globals, ptr @phar_globals, i32 0, i32 4), align 8, !tbaa !114
  br label %132

132:                                              ; preds = %129, %124
  br label %133

133:                                              ; preds = %132, %121
  br label %134

134:                                              ; preds = %133, %113
  br label %135

135:                                              ; preds = %134, %105
  br label %136

136:                                              ; preds = %135, %85
  %137 = load ptr, ptr %11, align 8, !tbaa !9
  %138 = load i64, ptr %10, align 8, !tbaa !52
  %139 = getelementptr inbounds nuw i8, ptr %137, i64 %138
  store ptr %139, ptr %11, align 8, !tbaa !9
  %140 = load i32, ptr %9, align 4, !tbaa !81
  %141 = add i32 %140, -1
  store i32 %141, ptr %9, align 4, !tbaa !81
  br label %71

142:                                              ; preds = %71
  store i32 0, ptr %7, align 4
  br label %143

143:                                              ; preds = %142, %95
  call void @llvm.lifetime.end.p0(i64 8, ptr %11) #17
  call void @llvm.lifetime.end.p0(i64 8, ptr %10) #17
  call void @llvm.lifetime.end.p0(i64 4, ptr %9) #17
  call void @llvm.lifetime.end.p0(i64 8, ptr %8) #17
  %144 = load i32, ptr %7, align 4
  switch i32 %144, label %148 [
    i32 0, label %145
  ]

145:                                              ; preds = %143
  br label %146

146:                                              ; preds = %145
  br label %147

147:                                              ; preds = %146
  store i32 0, ptr %7, align 4
  br label %148

148:                                              ; preds = %147, %143, %47, %33, %19
  call void @llvm.lifetime.end.p0(i64 8, ptr %6) #17
  call void @llvm.lifetime.end.p0(i64 8, ptr %5) #17
  %149 = load i32, ptr %7, align 4
  switch i32 %149, label %151 [
    i32 0, label %150
    i32 1, label %150
  ]

150:                                              ; preds = %148, %148
  ret void

151:                                              ; preds = %148
  unreachable
}