; Function Attrs: nounwind uwtable
define hidden void @zim_Phar_mungServer(ptr noundef readonly captures(none) %0, ptr readnone captures(none) %1) #0 {
  %3 = alloca ptr, align 8
  call void @llvm.lifetime.start.p0(i64 8, ptr nonnull %3) #20
  %4 = getelementptr inbounds nuw i8, ptr %0, i64 44
  %5 = load i32, ptr %4, align 4, !tbaa !8
  %6 = call i32 (i32, ptr, ...) @zend_parse_parameters(i32 noundef %5, ptr noundef nonnull @.str.33, ptr noundef nonnull %3) #20
  %7 = icmp eq i32 %6, -1
  br i1 %7, label %.loopexit.sink.split, label %8

8:                                                ; preds = %2
  %9 = load ptr, ptr %3, align 8, !tbaa !60
  %10 = load ptr, ptr %9, align 8, !tbaa !8
  %11 = getelementptr inbounds nuw i8, ptr %10, i64 28
  %12 = load i32, ptr %11, align 4, !tbaa !89
  %.not = icmp eq i32 %12, 0
  br i1 %.not, label %.loopexit.sink.split.sink.split, label %13

13:                                               ; preds = %8
  %14 = icmp ugt i32 %12, 4
  br i1 %14, label %.loopexit.sink.split.sink.split, label %15

15:                                               ; preds = %13
  call void @phar_request_initialize() #20
  %16 = load ptr, ptr %3, align 8, !tbaa !60
  %17 = load ptr, ptr %16, align 8, !tbaa !8
  %18 = getelementptr inbounds nuw i8, ptr %17, i64 24
  %19 = load i32, ptr %18, align 8, !tbaa !103
  %.not1733 = icmp eq i32 %19, 0
  br i1 %.not1733, label %.loopexit, label %.lr.ph

.lr.ph:                                           ; preds = %15
  %.promoted = load i32, ptr getelementptr inbounds nuw (i8, ptr @phar_globals, i64 176), align 8
  %20 = getelementptr inbounds nuw i8, ptr %17, i64 16
  %21 = load ptr, ptr %20, align 8, !tbaa !8
  %22 = getelementptr inbounds nuw i8, ptr %17, i64 8
  %23 = load i32, ptr %22, align 8, !tbaa !8
  %24 = shl i32 %23, 2
  %25 = and i32 %24, 16
  %26 = xor i32 %25, 16
  %27 = zext nneg i32 %26 to i64
  br label %28

28:                                               ; preds = %.lr.ph, %zend_string_equals_cstr.exit27.thread
  %.035 = phi ptr [ %21, %.lr.ph ], [ %42, %zend_string_equals_cstr.exit27.thread ]
  %.01634 = phi i32 [ %19, %.lr.ph ], [ %43, %zend_string_equals_cstr.exit27.thread ]
  %29 = phi i32 [ %.promoted, %.lr.ph ], [ %40, %zend_string_equals_cstr.exit27.thread ]
  %30 = getelementptr inbounds nuw i8, ptr %.035, i64 8
  %31 = load i8, ptr %30, align 8, !tbaa !8
  switch i8 %31, label %.loopexit.sink.split.sink.split [
    i8 0, label %zend_string_equals_cstr.exit27.thread
    i8 6, label %32
  ], !prof !104

32:                                               ; preds = %28
  %33 = load ptr, ptr %.035, align 8, !tbaa !8
  %34 = getelementptr inbounds nuw i8, ptr %33, i64 16
  %35 = load i64, ptr %34, align 8, !tbaa !45
  switch i64 %35, label %zend_string_equals_cstr.exit27.thread [
    i64 8, label %zend_string_equals_cstr.exit
    i64 11, label %zend_string_equals_cstr.exit21
    i64 15, label %zend_string_equals_cstr.exit27
  ]

zend_string_equals_cstr.exit:                     ; preds = %32
  %36 = getelementptr inbounds nuw i8, ptr %33, i64 24
  %bcmp.i = call i32 @bcmp(ptr noundef nonnull dereferenceable(8) %36, ptr noundef nonnull dereferenceable(8) @.str.37, i64 8)
  %.not.i = icmp eq i32 %bcmp.i, 0
  br i1 %.not.i, label %zend_string_equals_cstr.exit27.thread.sink.split, label %zend_string_equals_cstr.exit27.thread

zend_string_equals_cstr.exit21:                   ; preds = %32
  %37 = getelementptr inbounds nuw i8, ptr %33, i64 24
  %bcmp.i19 = call i32 @bcmp(ptr noundef nonnull dereferenceable(11) %37, ptr noundef nonnull dereferenceable(11) @.str.38, i64 11)
  %.not.i20 = icmp eq i32 %bcmp.i19, 0
  br i1 %.not.i20, label %zend_string_equals_cstr.exit27.thread.sink.split, label %zend_string_equals_cstr.exit24

zend_string_equals_cstr.exit24:                   ; preds = %zend_string_equals_cstr.exit21
  %bcmp.i22 = call i32 @bcmp(ptr noundef nonnull dereferenceable(11) %37, ptr noundef nonnull dereferenceable(11) @.str.21, i64 11)
  %.not.i23 = icmp eq i32 %bcmp.i22, 0
  br i1 %.not.i23, label %zend_string_equals_cstr.exit27.thread.sink.split, label %zend_string_equals_cstr.exit27.thread

zend_string_equals_cstr.exit27:                   ; preds = %32
  %38 = getelementptr inbounds nuw i8, ptr %33, i64 24
  %bcmp.i25 = call i32 @bcmp(ptr noundef nonnull dereferenceable(15) %38, ptr noundef nonnull dereferenceable(15) @.str.39, i64 15)
  %.not.i26 = icmp eq i32 %bcmp.i25, 0
  br i1 %.not.i26, label %zend_string_equals_cstr.exit27.thread.sink.split, label %zend_string_equals_cstr.exit27.thread

zend_string_equals_cstr.exit27.thread.sink.split: ; preds = %zend_string_equals_cstr.exit27, %zend_string_equals_cstr.exit24, %zend_string_equals_cstr.exit21, %zend_string_equals_cstr.exit
  %.sink36 = phi i32 [ 1, %zend_string_equals_cstr.exit ], [ 2, %zend_string_equals_cstr.exit21 ], [ 4, %zend_string_equals_cstr.exit24 ], [ 8, %zend_string_equals_cstr.exit27 ]
  %39 = or i32 %29, %.sink36
  store i32 %39, ptr getelementptr inbounds nuw (i8, ptr @phar_globals, i64 176), align 8, !tbaa !97
  br label %zend_string_equals_cstr.exit27.thread

zend_string_equals_cstr.exit27.thread:            ; preds = %zend_string_equals_cstr.exit27.thread.sink.split, %32, %28, %zend_string_equals_cstr.exit24, %zend_string_equals_cstr.exit, %zend_string_equals_cstr.exit27
  %40 = phi i32 [ %29, %32 ], [ %29, %28 ], [ %29, %zend_string_equals_cstr.exit24 ], [ %29, %zend_string_equals_cstr.exit ], [ %29, %zend_string_equals_cstr.exit27 ], [ %39, %zend_string_equals_cstr.exit27.thread.sink.split ]
  %41 = getelementptr inbounds nuw i8, ptr %.035, i64 %27
  %42 = getelementptr inbounds nuw i8, ptr %41, i64 16
  %43 = add i32 %.01634, -1
  %.not17 = icmp eq i32 %43, 0
  br i1 %.not17, label %.loopexit, label %28

.loopexit.sink.split.sink.split:                  ; preds = %28, %13, %8
  %.str.34.sink = phi ptr [ @.str.34, %8 ], [ @.str.35, %13 ], [ @.str.36, %28 ]
  %44 = load ptr, ptr @phar_ce_PharException, align 8, !tbaa !54
  %45 = call ptr (ptr, i64, ptr, ...) @zend_throw_exception_ex(ptr noundef %44, i64 noundef 0, ptr noundef nonnull %.str.34.sink) #20
  br label %.loopexit.sink.split

.loopexit.sink.split:                             ; preds = %.loopexit.sink.split.sink.split, %2
  %46 = load ptr, ptr getelementptr inbounds nuw (i8, ptr @executor_globals, i64 960), align 8, !tbaa !9
  %47 = icmp ne ptr %46, null
  call void @llvm.assume(i1 %47)
  br label %.loopexit

.loopexit:                                        ; preds = %zend_string_equals_cstr.exit27.thread, %.loopexit.sink.split, %15
  call void @llvm.lifetime.end.p0(i64 8, ptr nonnull %3) #20
  ret void
}